; Function Attrs: mustprogress nounwind uwtable
define internal noundef zeroext i1 @"_ZNSt17_Function_handlerIFbRKN4llvm8FunctionEEZL28inferAttrsFromFunctionBodiesRKNS0_14SmallSetVectorIPS1_Lj8EEERNS0_8SmallSetIS6_Lj8ESt4lessIS6_EEEE3$_3E9_M_invokeERKSt9_Any_dataS3_"(ptr nocapture nonnull readnone align 8 %0, ptr noundef nonnull align 8 dereferenceable(136) %1) #0 align 2 {
  %3 = tail call noundef zeroext i1 @_ZNK4llvm8Function15onlyReadsMemoryEv(ptr noundef nonnull align 8 dereferenceable(136) %1) #19
  br i1 %3, label %"_ZSt10__invoke_rIbRZL28inferAttrsFromFunctionBodiesRKN4llvm14SmallSetVectorIPNS0_8FunctionELj8EEERNS0_8SmallSetIS3_Lj8ESt4lessIS3_EEEE3$_3JRKS2_EENSt9enable_ifIX16is_invocable_r_vIT_T0_DpT1_EESH_E4typeEOSI_DpOSJ_.exit", label %4

4:                                                ; preds = %2
  %5 = tail call noundef zeroext i1 @_ZNK4llvm8Function14hasFnAttributeENS_9Attribute8AttrKindE(ptr noundef nonnull align 8 dereferenceable(136) %1, i32 noundef 27) #19
  br label %"_ZSt10__invoke_rIbRZL28inferAttrsFromFunctionBodiesRKN4llvm14SmallSetVectorIPNS0_8FunctionELj8EEERNS0_8SmallSetIS3_Lj8ESt4lessIS3_EEEE3$_3JRKS2_EENSt9enable_ifIX16is_invocable_r_vIT_T0_DpT1_EESH_E4typeEOSI_DpOSJ_.exit"

"_ZSt10__invoke_rIbRZL28inferAttrsFromFunctionBodiesRKN4llvm14SmallSetVectorIPNS0_8FunctionELj8EEERNS0_8SmallSetIS3_Lj8ESt4lessIS3_EEEE3$_3JRKS2_EENSt9enable_ifIX16is_invocable_r_vIT_T0_DpT1_EESH_E4typeEOSI_DpOSJ_.exit": ; preds = %2, %4
  %6 = phi i1 [ true, %2 ], [ %5, %4 ]
  ret i1 %6
}